target datalayout = "e-m:e-p270:32:32-p271:32:32-p272:64:64-i64:64-i128:128-f80:128-n8:16:32:64-S128"
target triple = "x86_64-pc-linux-gnu"

%struct.BufferManagerRelation = type { ptr, ptr, i8 }

@CritSectionCount = external global i32, align 4

; Function Attrs: nounwind uwtable
define dso_local void @gistbuildempty(ptr noundef %0) #0 {
  %2 = alloca ptr, align 8
  %3 = alloca i32, align 4
  %4 = alloca %struct.BufferManagerRelation, align 8
  store ptr %0, ptr %2, align 8
  call void @llvm.lifetime.start.p0(i64 4, ptr %3) #7
  %5 = getelementptr inbounds nuw %struct.BufferManagerRelation, ptr %4, i32 0, i32 0
  %6 = load ptr, ptr %2, align 8
  store ptr %6, ptr %5, align 8
  %7 = getelementptr inbounds nuw %struct.BufferManagerRelation, ptr %4, i32 0, i32 1
  store ptr null, ptr %7, align 8
  %8 = getelementptr inbounds nuw %struct.BufferManagerRelation, ptr %4, i32 0, i32 2
  store i8 0, ptr %8, align 8
  %9 = getelementptr i8, ptr %4, i64 17
  call void @llvm.memset.p0.i64(ptr align 1 %9, i8 0, i64 7, i1 false)
  %10 = call i32 @ExtendBufferedRel(ptr noundef byval(%struct.BufferManagerRelation) align 8 %4, i32 noundef 3, ptr noundef null, i32 noundef 9)
  store i32 %10, ptr %3, align 4
  %11 = load volatile i32, ptr @CritSectionCount, align 4
  %12 = add i32 %11, 1
  store volatile i32 %12, ptr @CritSectionCount, align 4
  %13 = load i32, ptr %3, align 4
  call void @GISTInitBuffer(i32 noundef %13, i32 noundef 1)
  %14 = load i32, ptr %3, align 4
  call void @MarkBufferDirty(i32 noundef %14)
  %15 = load i32, ptr %3, align 4
  %16 = call i64 @log_newpage_buffer(i32 noundef %15, i1 noundef zeroext true)
  br label %17

17:                                               ; preds = %1
  %18 = load volatile i32, ptr @CritSectionCount, align 4
  %19 = add i32 %18, -1
  store volatile i32 %19, ptr @CritSectionCount, align 4
  br label %20

20:                                               ; preds = %17
  br label %21

21:                                               ; preds = %20
  %22 = load i32, ptr %3, align 4
  call void @UnlockReleaseBuffer(i32 noundef %22)
  call void @llvm.lifetime.end.p0(i64 4, ptr %3) #7
  ret void
}