; Function Attrs: nounwind uwtable
define dso_local void @gistbuildempty(ptr noundef %0) #0 {
  %2 = alloca %struct.BufferManagerRelation, align 8
  store ptr %0, ptr %2, align 8
  %3 = getelementptr inbounds nuw i8, ptr %2, i64 8
  call void @llvm.memset.p0.i64(ptr noundef nonnull align 8 dereferenceable(16) %3, i8 0, i64 16, i1 false)
  %4 = tail call i32 @ExtendBufferedRel(ptr noundef nonnull byval(%struct.BufferManagerRelation) align 8 %2, i32 noundef 3, ptr noundef null, i32 noundef 9) #8
  %5 = load volatile i32, ptr @CritSectionCount, align 4
  %6 = add i32 %5, 1
  store volatile i32 %6, ptr @CritSectionCount, align 4
  tail call void @GISTInitBuffer(i32 noundef %4, i32 noundef 1) #8
  tail call void @MarkBufferDirty(i32 noundef %4) #8
  %7 = tail call i64 @log_newpage_buffer(i32 noundef %4, i1 noundef zeroext true) #8
  %8 = load volatile i32, ptr @CritSectionCount, align 4
  %9 = add i32 %8, -1
  store volatile i32 %9, ptr @CritSectionCount, align 4
  tail call void @UnlockReleaseBuffer(i32 noundef %4) #8
  ret void
}